; Function Attrs: nounwind uwtable
define hidden void @SDL_DestroyProcess_REAL(ptr noundef %0) local_unnamed_addr #0 {
  %.not = icmp eq ptr %0, null
  br i1 %.not, label %11, label %2

2:                                                ; preds = %1
  %3 = load i8, ptr %0, align 8, !range !3, !noundef !4
  %4 = trunc nuw i8 %3 to i1
  br i1 %4, label %5, label %SDL_WaitProcess_REAL.exit

5:                                                ; preds = %2
  %6 = getelementptr inbounds nuw i8, ptr %0, i64 4
  %7 = tail call zeroext i1 @SDL_SYS_WaitProcess(ptr noundef nonnull %0, i1 noundef zeroext false, ptr noundef nonnull %6) #3
  br i1 %7, label %8, label %SDL_WaitProcess_REAL.exit

8:                                                ; preds = %5
  store i8 0, ptr %0, align 8
  br label %SDL_WaitProcess_REAL.exit

SDL_WaitProcess_REAL.exit:                        ; preds = %8, %5, %2
  tail call void @SDL_SYS_DestroyProcess(ptr noundef nonnull %0) #3
  %9 = getelementptr inbounds nuw i8, ptr %0, i64 8
  %10 = load i32, ptr %9, align 8
  tail call void @SDL_DestroyProperties_REAL(i32 noundef %10) #3
  tail call void @SDL_free_REAL(ptr noundef nonnull %0) #3
  br label %11

11:                                               ; preds = %1, %SDL_WaitProcess_REAL.exit
  ret void
}